target datalayout = "e-m:e-p270:32:32-p271:32:32-p272:64:64-i64:64-i128:128-f80:128-n8:16:32:64-S128"
target triple = "x86_64-unknown-linux-gnu"

%"class.OpenImageIO_v2_6_0::spin_mutex" = type { %"struct.std::atomic_flag" }
%"struct.std::atomic_flag" = type { %"struct.std::__atomic_flag_base" }
%"struct.std::__atomic_flag_base" = type { i8 }
%"class.OpenImageIO_v2_6_0::spin_mutex::lock_guard" = type { ptr }
%"class.OpenImageIO_v2_6_0::pvt::TextureSystemImpl" = type <{ %"class.OpenImageIO_v2_6_0::TextureSystem", ptr, i8, [3 x i8], %"class.Imath_2_5::Matrix44", %"class.Imath_2_5::Matrix44", i8, i8, [2 x i8], i32, i32, %"class.boost::thread_specific_ptr", %"class.std::unique_ptr", i32, [4 x i8] }>
%"class.OpenImageIO_v2_6_0::TextureSystem" = type { ptr }
%"class.Imath_2_5::Matrix44" = type { [4 x [4 x float]] }
%"class.boost::thread_specific_ptr" = type { ptr }
%"class.std::unique_ptr" = type { %"struct.std::__uniq_ptr_data" }
%"struct.std::__uniq_ptr_data" = type { %"class.std::__uniq_ptr_impl" }
%"class.std::__uniq_ptr_impl" = type { %"class.std::tuple" }
%"class.std::tuple" = type { %"struct.std::_Tuple_impl" }
%"struct.std::_Tuple_impl" = type { %"struct.std::_Head_base.3" }
%"struct.std::_Head_base.3" = type { ptr }
%"class.OpenImageIO_v2_6_0::atomic_backoff" = type { i32, i32 }

@_ZN18OpenImageIO_v2_6_012_GLOBAL__N_123shared_texturesys_mutexE = internal global %"class.OpenImageIO_v2_6_0::spin_mutex" zeroinitializer, align 1
@_ZN18OpenImageIO_v2_6_012_GLOBAL__N_117shared_texturesysE = internal global ptr null, align 8

; Function Attrs: mustprogress nounwind uwtable
define internal noundef i32 @_ZL15__gthread_yieldv() #1 {
entry:
  %call = call i32 @sched_yield() #5
  ret i32 %call
}

; Function Attrs: mustprogress nounwind uwtable
define linkonce_odr void @_ZNSt11this_thread5yieldEv() #1 comdat personality ptr @__gxx_personality_v0 {
entry:
  %call = invoke noundef i32 @_ZL15__gthread_yieldv()
          to label %invoke.cont unwind label %terminate.lpad

invoke.cont:                                      ; preds = %entry
  ret void

terminate.lpad:                                   ; preds = %entry
  %0 = landingpad { ptr, i32 }
          catch ptr null
  %1 = extractvalue { ptr, i32 } %0, 0
  call void @__clang_call_terminate(ptr %1) #24
  unreachable
}

; Function Attrs: mustprogress nounwind uwtable
define linkonce_odr hidden void @_ZN18OpenImageIO_v2_6_05pauseEi(i32 noundef %delay) #1 comdat {
entry:
  %delay.addr = alloca i32, align 4
  %i = alloca i32, align 4
  store i32 %delay, ptr %delay.addr, align 4
  store i32 0, ptr %i, align 4
  br label %for.cond

for.cond:                                         ; preds = %for.inc, %entry
  %0 = load i32, ptr %i, align 4
  %1 = load i32, ptr %delay.addr, align 4
  %cmp = icmp slt i32 %0, %1
  br i1 %cmp, label %for.body, label %for.end

for.body:                                         ; preds = %for.cond
  call void asm sideeffect "pause;", "~{dirflag},~{fpsr},~{flags}"() #5, !srcloc !1333
  br label %for.inc

for.inc:                                          ; preds = %for.body
  %2 = load i32, ptr %i, align 4
  %inc = add nsw i32 %2, 1
  store i32 %inc, ptr %i, align 4
  br label %for.cond, !llvm.loop !1334

for.end:                                          ; preds = %for.cond
  ret void
}

; Function Attrs: noreturn nounwind uwtable
define linkonce_odr hidden void @__clang_call_terminate(ptr noundef %0) #9 comdat {
  %2 = call ptr @__cxa_begin_catch(ptr %0) #5
  call void @_ZSt9terminatev() #24
  unreachable
}

; Function Attrs: mustprogress nounwind uwtable
define linkonce_odr noundef i32 @_ZStanSt12memory_orderSt23__memory_order_modifier(i32 noundef %__m, i32 noundef %__mod) #1 comdat {
entry:
  %__m.addr = alloca i32, align 4
  %__mod.addr = alloca i32, align 4
  store i32 %__m, ptr %__m.addr, align 4
  store i32 %__mod, ptr %__mod.addr, align 4
  %0 = load i32, ptr %__m.addr, align 4
  %1 = load i32, ptr %__mod.addr, align 4
  %and = and i32 %0, %1
  ret i32 %and
}

; Function Attrs: mustprogress nounwind uwtable
define linkonce_odr hidden void @_ZN18OpenImageIO_v2_6_014atomic_backoffclEv(ptr noundef nonnull align 4 dereferenceable(8) %this) #1 comdat align 2 {
entry:
  %this.addr = alloca ptr, align 8
  store ptr %this, ptr %this.addr, align 8
  %this1 = load ptr, ptr %this.addr, align 8
  %m_count = getelementptr inbounds %"class.OpenImageIO_v2_6_0::atomic_backoff", ptr %this1, i32 0, i32 0
  %0 = load i32, ptr %m_count, align 4
  %m_pausemax = getelementptr inbounds %"class.OpenImageIO_v2_6_0::atomic_backoff", ptr %this1, i32 0, i32 1
  %1 = load i32, ptr %m_pausemax, align 4
  %cmp = icmp sle i32 %0, %1
  br i1 %cmp, label %if.then, label %if.else

if.then:                                          ; preds = %entry
  %m_count2 = getelementptr inbounds %"class.OpenImageIO_v2_6_0::atomic_backoff", ptr %this1, i32 0, i32 0
  %2 = load i32, ptr %m_count2, align 4
  call void @_ZN18OpenImageIO_v2_6_05pauseEi(i32 noundef %2) #5
  %m_count3 = getelementptr inbounds %"class.OpenImageIO_v2_6_0::atomic_backoff", ptr %this1, i32 0, i32 0
  %3 = load i32, ptr %m_count3, align 4
  %mul = mul nsw i32 %3, 2
  store i32 %mul, ptr %m_count3, align 4
  br label %if.end

if.else:                                          ; preds = %entry
  call void @_ZNSt11this_thread5yieldEv() #5
  br label %if.end

if.end:                                           ; preds = %if.else, %if.then
  ret void
}

; Function Attrs: mustprogress nounwind uwtable
define linkonce_odr hidden noundef zeroext i1 @_ZN18OpenImageIO_v2_6_010spin_mutex8try_lockEv(ptr noundef nonnull align 1 dereferenceable(1) %this) #1 comdat align 2 {
entry:
  %this.addr.i = alloca ptr, align 8
  %__m.addr.i = alloca i32, align 4
  %this.addr = alloca ptr, align 8
  store ptr %this, ptr %this.addr, align 8
  %this1 = load ptr, ptr %this.addr, align 8
  %m_locked = getelementptr inbounds %"class.OpenImageIO_v2_6_0::spin_mutex", ptr %this1, i32 0, i32 0
  store ptr %m_locked, ptr %this.addr.i, align 8
  store i32 2, ptr %__m.addr.i, align 4
  %this1.i = load ptr, ptr %this.addr.i, align 8
  %0 = load i32, ptr %__m.addr.i, align 4
  switch i32 %0, label %monotonic.i [
    i32 5, label %seqcst.i
    i32 1, label %acquire.i
    i32 2, label %acquire.i
    i32 3, label %release.i
    i32 4, label %acqrel.i
  ]

monotonic.i:                                      ; preds = %entry
  %1 = atomicrmw xchg ptr %this1.i, i8 1 monotonic, align 1
  br label %_ZNSt11atomic_flag12test_and_setESt12memory_order.exit

acquire.i:                                        ; preds = %entry, %entry
  %2 = atomicrmw xchg ptr %this1.i, i8 1 acquire, align 1
  br label %_ZNSt11atomic_flag12test_and_setESt12memory_order.exit

release.i:                                        ; preds = %entry
  %3 = atomicrmw xchg ptr %this1.i, i8 1 release, align 1
  br label %_ZNSt11atomic_flag12test_and_setESt12memory_order.exit

acqrel.i:                                         ; preds = %entry
  %4 = atomicrmw xchg ptr %this1.i, i8 1 acq_rel, align 1
  br label %_ZNSt11atomic_flag12test_and_setESt12memory_order.exit

seqcst.i:                                         ; preds = %entry
  %5 = atomicrmw xchg ptr %this1.i, i8 1 seq_cst, align 1
  br label %_ZNSt11atomic_flag12test_and_setESt12memory_order.exit

_ZNSt11atomic_flag12test_and_setESt12memory_order.exit: ; preds = %seqcst.i, %acqrel.i, %release.i, %acquire.i, %monotonic.i
  %was_set.i = phi i8 [ %1, %monotonic.i ], [ %2, %acquire.i ], [ %3, %release.i ], [ %4, %acqrel.i ], [ %5, %seqcst.i ]
  %tobool.i = icmp ne i8 %was_set.i, 0
  %lnot = xor i1 %tobool.i, true
  ret i1 %lnot
}

; Function Attrs: mustprogress nounwind uwtable
define linkonce_odr hidden void @_ZN18OpenImageIO_v2_6_014atomic_backoffC2Ei(ptr noundef nonnull align 4 dereferenceable(8) %this, i32 noundef %pausemax) unnamed_addr #1 comdat align 2 {
entry:
  %this.addr = alloca ptr, align 8
  %pausemax.addr = alloca i32, align 4
  store ptr %this, ptr %this.addr, align 8
  store i32 %pausemax, ptr %pausemax.addr, align 4
  %this1 = load ptr, ptr %this.addr, align 8
  %m_count = getelementptr inbounds %"class.OpenImageIO_v2_6_0::atomic_backoff", ptr %this1, i32 0, i32 0
  store i32 1, ptr %m_count, align 4
  %m_pausemax = getelementptr inbounds %"class.OpenImageIO_v2_6_0::atomic_backoff", ptr %this1, i32 0, i32 1
  %0 = load i32, ptr %pausemax.addr, align 4
  store i32 %0, ptr %m_pausemax, align 4
  ret void
}

; Function Attrs: mustprogress nounwind uwtable
define linkonce_odr hidden void @_ZN18OpenImageIO_v2_6_010spin_mutex6unlockEv(ptr noundef nonnull align 1 dereferenceable(1) %this) #1 comdat align 2 personality ptr @__gxx_personality_v0 {
entry:
  %this.addr.i = alloca ptr, align 8
  %__m.addr.i = alloca i32, align 4
  %__b.i = alloca i32, align 4
  %this.addr = alloca ptr, align 8
  store ptr %this, ptr %this.addr, align 8
  %this1 = load ptr, ptr %this.addr, align 8
  %m_locked = getelementptr inbounds %"class.OpenImageIO_v2_6_0::spin_mutex", ptr %this1, i32 0, i32 0
  store ptr %m_locked, ptr %this.addr.i, align 8
  store i32 3, ptr %__m.addr.i, align 4
  %this1.i = load ptr, ptr %this.addr.i, align 8
  %0 = load i32, ptr %__m.addr.i, align 4
  %call.i = invoke noundef i32 @_ZStanSt12memory_orderSt23__memory_order_modifier(i32 noundef %0, i32 noundef 65535)
          to label %invoke.cont.i unwind label %terminate.lpad.i

invoke.cont.i:                                    ; preds = %entry
  store i32 %call.i, ptr %__b.i, align 4
  %1 = load i32, ptr %__m.addr.i, align 4
  switch i32 %1, label %monotonic.i [
    i32 5, label %seqcst.i
    i32 3, label %release.i
  ]

monotonic.i:                                      ; preds = %invoke.cont.i
  store atomic i8 0, ptr %this1.i monotonic, align 1
  br label %_ZNSt11atomic_flag5clearESt12memory_order.exit

release.i:                                        ; preds = %invoke.cont.i
  store atomic i8 0, ptr %this1.i release, align 1
  br label %_ZNSt11atomic_flag5clearESt12memory_order.exit

seqcst.i:                                         ; preds = %invoke.cont.i
  store atomic i8 0, ptr %this1.i seq_cst, align 1
  br label %_ZNSt11atomic_flag5clearESt12memory_order.exit

terminate.lpad.i:                                 ; preds = %entry
  %2 = landingpad { ptr, i32 }
          catch ptr null
  %3 = extractvalue { ptr, i32 } %2, 0
  call void @__clang_call_terminate(ptr %3) #24
  unreachable

_ZNSt11atomic_flag5clearESt12memory_order.exit:   ; preds = %seqcst.i, %release.i, %monotonic.i
  ret void
}

; Function Attrs: mustprogress nounwind uwtable
define linkonce_odr hidden void @_ZN18OpenImageIO_v2_6_010spin_mutex4lockEv(ptr noundef nonnull align 1 dereferenceable(1) %this) #1 comdat align 2 {
entry:
  %this.addr = alloca ptr, align 8
  %backoff = alloca %"class.OpenImageIO_v2_6_0::atomic_backoff", align 4
  store ptr %this, ptr %this.addr, align 8
  %this1 = load ptr, ptr %this.addr, align 8
  call void @_ZN18OpenImageIO_v2_6_014atomic_backoffC2Ei(ptr noundef nonnull align 4 dereferenceable(8) %backoff, i32 noundef 16) #5
  br label %while.cond

while.cond:                                       ; preds = %do.end, %entry
  %call = call noundef zeroext i1 @_ZN18OpenImageIO_v2_6_010spin_mutex8try_lockEv(ptr noundef nonnull align 1 dereferenceable(1) %this1) #5
  %lnot = xor i1 %call, true
  br i1 %lnot, label %while.body, label %while.end

while.body:                                       ; preds = %while.cond
  br label %do.body

do.body:                                          ; preds = %do.cond, %while.body
  call void @_ZN18OpenImageIO_v2_6_014atomic_backoffclEv(ptr noundef nonnull align 4 dereferenceable(8) %backoff) #5
  br label %do.cond

do.cond:                                          ; preds = %do.body
  %m_locked = getelementptr inbounds %"class.OpenImageIO_v2_6_0::spin_mutex", ptr %this1, i32 0, i32 0
  %0 = load volatile i8, ptr %m_locked, align 1
  %tobool = trunc i8 %0 to i1
  br i1 %tobool, label %do.body, label %do.end, !llvm.loop !1331

do.end:                                           ; preds = %do.cond
  br label %while.cond, !llvm.loop !1332

while.end:                                        ; preds = %while.cond
  ret void
}

; Function Attrs: mustprogress nounwind uwtable
define linkonce_odr hidden void @_ZN18OpenImageIO_v2_6_010spin_mutex10lock_guardD2Ev(ptr noundef nonnull align 8 dereferenceable(8) %this) unnamed_addr #1 comdat align 2 {
entry:
  %this.addr = alloca ptr, align 8
  store ptr %this, ptr %this.addr, align 8
  %this1 = load ptr, ptr %this.addr, align 8
  %m_fm = getelementptr inbounds %"class.OpenImageIO_v2_6_0::spin_mutex::lock_guard", ptr %this1, i32 0, i32 0
  %0 = load ptr, ptr %m_fm, align 8
  call void @_ZN18OpenImageIO_v2_6_010spin_mutex6unlockEv(ptr noundef nonnull align 1 dereferenceable(1) %0) #5
  ret void
}

; Function Attrs: mustprogress nounwind uwtable
define linkonce_odr hidden void @_ZN18OpenImageIO_v2_6_010spin_mutex10lock_guardC2ERS0_(ptr noundef nonnull align 8 dereferenceable(8) %this, ptr noundef nonnull align 1 dereferenceable(1) %fm) unnamed_addr #1 comdat align 2 {
entry:
  %this.addr = alloca ptr, align 8
  %fm.addr = alloca ptr, align 8
  store ptr %this, ptr %this.addr, align 8
  store ptr %fm, ptr %fm.addr, align 8
  %this1 = load ptr, ptr %this.addr, align 8
  %m_fm = getelementptr inbounds %"class.OpenImageIO_v2_6_0::spin_mutex::lock_guard", ptr %this1, i32 0, i32 0
  %0 = load ptr, ptr %fm.addr, align 8
  store ptr %0, ptr %m_fm, align 8
  %m_fm2 = getelementptr inbounds %"class.OpenImageIO_v2_6_0::spin_mutex::lock_guard", ptr %this1, i32 0, i32 0
  %1 = load ptr, ptr %m_fm2, align 8
  call void @_ZN18OpenImageIO_v2_6_010spin_mutex4lockEv(ptr noundef nonnull align 1 dereferenceable(1) %1) #5
  ret void
}

; Function Attrs: mustprogress uwtable
define void @_ZN18OpenImageIO_v2_6_013TextureSystem7destroyEPS0_b(ptr noundef %x, i1 noundef zeroext %teardown_imagecache) #7 align 2 {
entry:
  %x.addr = alloca ptr, align 8
  %teardown_imagecache.addr = alloca i8, align 1
  %impl = alloca ptr, align 8
  %guard = alloca %"class.OpenImageIO_v2_6_0::spin_mutex::lock_guard", align 8
  store ptr %x, ptr %x.addr, align 8
  %frombool = zext i1 %teardown_imagecache to i8
  store i8 %frombool, ptr %teardown_imagecache.addr, align 1
  %0 = load ptr, ptr %x.addr, align 8
  %tobool = icmp ne ptr %0, null
  br i1 %tobool, label %if.end, label %if.then

if.then:                                          ; preds = %entry
  br label %return

if.end:                                           ; preds = %entry
  %1 = load ptr, ptr %x.addr, align 8
  store ptr %1, ptr %impl, align 8
  %2 = load i8, ptr %teardown_imagecache.addr, align 1
  %tobool1 = trunc i8 %2 to i1
  br i1 %tobool1, label %if.then2, label %if.end7

if.then2:                                         ; preds = %if.end
  %3 = load ptr, ptr %impl, align 8
  %m_imagecache_owner = getelementptr inbounds %"class.OpenImageIO_v2_6_0::pvt::TextureSystemImpl", ptr %3, i32 0, i32 2
  %4 = load i8, ptr %m_imagecache_owner, align 8
  %tobool3 = trunc i8 %4 to i1
  br i1 %tobool3, label %if.then4, label %if.end5

if.then4:                                         ; preds = %if.then2
  %5 = load ptr, ptr %impl, align 8
  %m_imagecache = getelementptr inbounds %"class.OpenImageIO_v2_6_0::pvt::TextureSystemImpl", ptr %5, i32 0, i32 1
  %6 = load ptr, ptr %m_imagecache, align 8
  call void @_ZN18OpenImageIO_v2_6_010ImageCache7destroyEPS0_b(ptr noundef %6, i1 noundef zeroext true)
  br label %if.end5

if.end5:                                          ; preds = %if.then4, %if.then2
  %7 = load ptr, ptr %impl, align 8
  %m_imagecache6 = getelementptr inbounds %"class.OpenImageIO_v2_6_0::pvt::TextureSystemImpl", ptr %7, i32 0, i32 1
  store ptr null, ptr %m_imagecache6, align 8
  br label %if.end7

if.end7:                                          ; preds = %if.end5, %if.end
  call void @_ZN18OpenImageIO_v2_6_010spin_mutex10lock_guardC2ERS0_(ptr noundef nonnull align 8 dereferenceable(8) %guard, ptr noundef nonnull align 1 dereferenceable(1) @_ZN18OpenImageIO_v2_6_012_GLOBAL__N_123shared_texturesys_mutexE) #5
  %8 = load ptr, ptr %impl, align 8
  %9 = load ptr, ptr @_ZN18OpenImageIO_v2_6_012_GLOBAL__N_117shared_texturesysE, align 8
  %cmp = icmp eq ptr %8, %9
  br i1 %cmp, label %if.then8, label %if.else

if.then8:                                         ; preds = %if.end7
  br label %if.end9

if.else:                                          ; preds = %if.end7
  %10 = load ptr, ptr %x.addr, align 8
  %isnull = icmp eq ptr %10, null
  br i1 %isnull, label %delete.end, label %delete.notnull

delete.notnull:                                   ; preds = %if.else
  %vtable = load ptr, ptr %10, align 8
  %vfn = getelementptr inbounds ptr, ptr %vtable, i64 69
  %11 = load ptr, ptr %vfn, align 8
  call void %11(ptr noundef nonnull align 8 dereferenceable(8) %10) #5
  br label %delete.end

delete.end:                                       ; preds = %delete.notnull, %if.else
  br label %if.end9

if.end9:                                          ; preds = %delete.end, %if.then8
  call void @_ZN18OpenImageIO_v2_6_010spin_mutex10lock_guardD2Ev(ptr noundef nonnull align 8 dereferenceable(8) %guard) #5
  br label %return

return:                                           ; preds = %if.end9, %if.then
  ret void
}