; Function Attrs: mustprogress uwtable
define void @_ZN18OpenImageIO_v2_6_013TextureSystem7destroyEPS0_b(ptr noundef %x, i1 noundef zeroext %teardown_imagecache) local_unnamed_addr #5 align 2 personality ptr @__gxx_personality_v0 {
entry:
  %tobool.not = icmp eq ptr %x, null
  br i1 %tobool.not, label %return, label %if.end

if.end:                                           ; preds = %entry
  br i1 %teardown_imagecache, label %if.then2, label %if.end7

if.then2:                                         ; preds = %if.end
  %m_imagecache_owner = getelementptr inbounds i8, ptr %x, i64 16
  %0 = load i8, ptr %m_imagecache_owner, align 8
  %1 = and i8 %0, 1
  %tobool3.not = icmp eq i8 %1, 0
  br i1 %tobool3.not, label %if.end5, label %if.then4

if.then4:                                         ; preds = %if.then2
  %m_imagecache = getelementptr inbounds i8, ptr %x, i64 8
  %2 = load ptr, ptr %m_imagecache, align 8
  tail call void @_ZN18OpenImageIO_v2_6_010ImageCache7destroyEPS0_b(ptr noundef %2, i1 noundef zeroext true)
  br label %if.end5

if.end5:                                          ; preds = %if.then4, %if.then2
  %m_imagecache6 = getelementptr inbounds i8, ptr %x, i64 8
  store ptr null, ptr %m_imagecache6, align 8
  br label %if.end7

if.end7:                                          ; preds = %if.end5, %if.end
  %3 = atomicrmw xchg ptr @_ZN18OpenImageIO_v2_6_012_GLOBAL__N_123shared_texturesys_mutexE, i8 1 acquire, align 1
  %tobool.i.not.i3.i.i = icmp eq i8 %3, 0
  br i1 %tobool.i.not.i3.i.i, label %_ZN18OpenImageIO_v2_6_010spin_mutex10lock_guardC2ERS0_.exit, label %do.body.i.i

do.body.i.i:                                      ; preds = %if.end7, %do.body.i.i.backedge
  %backoff.sroa.0.1.i.i = phi i32 [ %backoff.sroa.0.2.i.i, %do.body.i.i.backedge ], [ 1, %if.end7 ]
  %cmp.not.i.i.i = icmp sgt i32 %backoff.sroa.0.1.i.i, 16
  br i1 %cmp.not.i.i.i, label %if.else.i.i.i, label %if.then.i.i.i

if.then.i.i.i:                                    ; preds = %do.body.i.i
  %cmp2.i.i.i.i = icmp sgt i32 %backoff.sroa.0.1.i.i, 0
  br i1 %cmp2.i.i.i.i, label %for.body.i.i.i.i, label %_ZN18OpenImageIO_v2_6_05pauseEi.exit.i.i.i

for.body.i.i.i.i:                                 ; preds = %if.then.i.i.i, %for.body.i.i.i.i
  %i.03.i.i.i.i = phi i32 [ %inc.i.i.i.i, %for.body.i.i.i.i ], [ 0, %if.then.i.i.i ]
  tail call void asm sideeffect "pause;", "~{dirflag},~{fpsr},~{flags}"() #30, !srcloc !4
  %inc.i.i.i.i = add nuw nsw i32 %i.03.i.i.i.i, 1
  %exitcond.not.i.i.i.i = icmp eq i32 %inc.i.i.i.i, %backoff.sroa.0.1.i.i
  br i1 %exitcond.not.i.i.i.i, label %_ZN18OpenImageIO_v2_6_05pauseEi.exit.i.i.i, label %for.body.i.i.i.i, !llvm.loop !5

_ZN18OpenImageIO_v2_6_05pauseEi.exit.i.i.i:       ; preds = %for.body.i.i.i.i, %if.then.i.i.i
  %mul.i.i.i = shl nsw i32 %backoff.sroa.0.1.i.i, 1
  br label %_ZN18OpenImageIO_v2_6_014atomic_backoffclEv.exit.i.i

if.else.i.i.i:                                    ; preds = %do.body.i.i
  %call.i.i.i.i.i = tail call noundef i32 @sched_yield() #30
  br label %_ZN18OpenImageIO_v2_6_014atomic_backoffclEv.exit.i.i

_ZN18OpenImageIO_v2_6_014atomic_backoffclEv.exit.i.i: ; preds = %if.else.i.i.i, %_ZN18OpenImageIO_v2_6_05pauseEi.exit.i.i.i
  %backoff.sroa.0.2.i.i = phi i32 [ %backoff.sroa.0.1.i.i, %if.else.i.i.i ], [ %mul.i.i.i, %_ZN18OpenImageIO_v2_6_05pauseEi.exit.i.i.i ]
  %4 = load volatile i8, ptr @_ZN18OpenImageIO_v2_6_012_GLOBAL__N_123shared_texturesys_mutexE, align 1
  %5 = and i8 %4, 1
  %tobool.not.i.i = icmp eq i8 %5, 0
  br i1 %tobool.not.i.i, label %do.end.i.i, label %do.body.i.i.backedge

do.body.i.i.backedge:                             ; preds = %_ZN18OpenImageIO_v2_6_014atomic_backoffclEv.exit.i.i, %do.end.i.i
  br label %do.body.i.i, !llvm.loop !7

do.end.i.i:                                       ; preds = %_ZN18OpenImageIO_v2_6_014atomic_backoffclEv.exit.i.i
  %6 = atomicrmw xchg ptr @_ZN18OpenImageIO_v2_6_012_GLOBAL__N_123shared_texturesys_mutexE, i8 1 acquire, align 1
  %tobool.i.not.i.i.i = icmp eq i8 %6, 0
  br i1 %tobool.i.not.i.i.i, label %_ZN18OpenImageIO_v2_6_010spin_mutex10lock_guardC2ERS0_.exit, label %do.body.i.i.backedge

_ZN18OpenImageIO_v2_6_010spin_mutex10lock_guardC2ERS0_.exit: ; preds = %do.end.i.i, %if.end7
  %7 = load ptr, ptr @_ZN18OpenImageIO_v2_6_012_GLOBAL__N_117shared_texturesysE, align 8
  %cmp = icmp eq ptr %7, %x
  br i1 %cmp, label %if.end9, label %delete.notnull

delete.notnull:                                   ; preds = %_ZN18OpenImageIO_v2_6_010spin_mutex10lock_guardC2ERS0_.exit
  %vtable = load ptr, ptr %x, align 8
  %vfn = getelementptr inbounds i8, ptr %vtable, i64 552
  %8 = load ptr, ptr %vfn, align 8
  tail call void %8(ptr noundef nonnull align 8 dereferenceable(8) %x) #30
  br label %if.end9

if.end9:                                          ; preds = %delete.notnull, %_ZN18OpenImageIO_v2_6_010spin_mutex10lock_guardC2ERS0_.exit
  store atomic i8 0, ptr @_ZN18OpenImageIO_v2_6_012_GLOBAL__N_123shared_texturesys_mutexE release, align 1
  br label %return

return:                                           ; preds = %entry, %if.end9
  ret void
}